target datalayout = "e-m:e-p270:32:32-p271:32:32-p272:64:64-i64:64-i128:128-f80:128-n8:16:32:64-S128"
target triple = "x86_64-pc-linux-gnu"

; Function Attrs: mustprogress nounwind uwtable
define noundef i32 @_ZN6icu_7718CollationFastLatin13getTertiariesEjaj(i32 noundef %0, i8 noundef signext %1, i32 noundef %2) #2 align 2 {
  %4 = alloca i32, align 4
  %5 = alloca i8, align 1
  %6 = alloca i32, align 4
  %7 = alloca i32, align 4
  %8 = alloca i32, align 4
  store i32 %0, ptr %4, align 4, !tbaa !12
  store i8 %1, ptr %5, align 1, !tbaa !32
  store i32 %2, ptr %6, align 4, !tbaa !12
  %9 = load i32, ptr %6, align 4, !tbaa !12
  %10 = icmp ule i32 %9, 65535
  br i1 %10, label %11, label %62

11:                                               ; preds = %3
  %12 = load i32, ptr %6, align 4, !tbaa !12
  %13 = icmp uge i32 %12, 4096
  br i1 %13, label %14, label %41

14:                                               ; preds = %11
  call void @llvm.lifetime.start.p0(i64 4, ptr %7) #6
  %15 = load i32, ptr %6, align 4, !tbaa !12
  store i32 %15, ptr %7, align 4, !tbaa !12
  %16 = load i8, ptr %5, align 1, !tbaa !32
  %17 = icmp ne i8 %16, 0
  br i1 %17, label %18, label %29

18:                                               ; preds = %14
  %19 = load i32, ptr %6, align 4, !tbaa !12
  %20 = and i32 %19, 31
  %21 = add i32 %20, 32
  store i32 %21, ptr %6, align 4, !tbaa !12
  %22 = load i32, ptr %7, align 4, !tbaa !12
  %23 = and i32 %22, 992
  %24 = icmp uge i32 %23, 384
  br i1 %24, label %25, label %28

25:                                               ; preds = %18
  %26 = load i32, ptr %6, align 4, !tbaa !12
  %27 = or i32 %26, 2621440
  store i32 %27, ptr %6, align 4, !tbaa !12
  br label %28

28:                                               ; preds = %25, %18
  br label %40

29:                                               ; preds = %14
  %30 = load i32, ptr %6, align 4, !tbaa !12
  %31 = and i32 %30, 7
  %32 = add i32 %31, 32
  store i32 %32, ptr %6, align 4, !tbaa !12
  %33 = load i32, ptr %7, align 4, !tbaa !12
  %34 = and i32 %33, 992
  %35 = icmp uge i32 %34, 384
  br i1 %35, label %36, label %39

36:                                               ; preds = %29
  %37 = load i32, ptr %6, align 4, !tbaa !12
  %38 = or i32 %37, 2097152
  store i32 %38, ptr %6, align 4, !tbaa !12
  br label %39

39:                                               ; preds = %36, %29
  br label %40

40:                                               ; preds = %39, %28
  call void @llvm.lifetime.end.p0(i64 4, ptr %7) #6
  br label %61

41:                                               ; preds = %11
  %42 = load i32, ptr %6, align 4, !tbaa !12
  %43 = load i32, ptr %4, align 4, !tbaa !12
  %44 = icmp ugt i32 %42, %43
  br i1 %44, label %45, label %55

45:                                               ; preds = %41
  %46 = load i32, ptr %6, align 4, !tbaa !12
  %47 = and i32 %46, 7
  %48 = add i32 %47, 32
  store i32 %48, ptr %6, align 4, !tbaa !12
  %49 = load i8, ptr %5, align 1, !tbaa !32
  %50 = icmp ne i8 %49, 0
  br i1 %50, label %51, label %54

51:                                               ; preds = %45
  %52 = load i32, ptr %6, align 4, !tbaa !12
  %53 = or i32 %52, 8
  store i32 %53, ptr %6, align 4, !tbaa !12
  br label %54

54:                                               ; preds = %51, %45
  br label %60

55:                                               ; preds = %41
  %56 = load i32, ptr %6, align 4, !tbaa !12
  %57 = icmp uge i32 %56, 3072
  br i1 %57, label %58, label %59

58:                                               ; preds = %55
  store i32 0, ptr %6, align 4, !tbaa !12
  br label %59

59:                                               ; preds = %58, %55
  br label %60

60:                                               ; preds = %59, %54
  br label %61

61:                                               ; preds = %60, %40
  br label %96

62:                                               ; preds = %3
  call void @llvm.lifetime.start.p0(i64 4, ptr %8) #6
  %63 = load i32, ptr %6, align 4, !tbaa !12
  %64 = and i32 %63, 65535
  store i32 %64, ptr %8, align 4, !tbaa !12
  %65 = load i32, ptr %8, align 4, !tbaa !12
  %66 = icmp uge i32 %65, 4096
  br i1 %66, label %67, label %79

67:                                               ; preds = %62
  %68 = load i8, ptr %5, align 1, !tbaa !32
  %69 = icmp ne i8 %68, 0
  br i1 %69, label %70, label %73

70:                                               ; preds = %67
  %71 = load i32, ptr %6, align 4, !tbaa !12
  %72 = and i32 %71, 2031647
  store i32 %72, ptr %6, align 4, !tbaa !12
  br label %76

73:                                               ; preds = %67
  %74 = load i32, ptr %6, align 4, !tbaa !12
  %75 = and i32 %74, 458759
  store i32 %75, ptr %6, align 4, !tbaa !12
  br label %76

76:                                               ; preds = %73, %70
  %77 = load i32, ptr %6, align 4, !tbaa !12
  %78 = add i32 %77, 2097184
  store i32 %78, ptr %6, align 4, !tbaa !12
  br label %95

79:                                               ; preds = %62
  %80 = load i32, ptr %8, align 4, !tbaa !12
  %81 = load i32, ptr %4, align 4, !tbaa !12
  %82 = icmp ugt i32 %80, %81
  br i1 %82, label %83, label %93

83:                                               ; preds = %79
  %84 = load i32, ptr %6, align 4, !tbaa !12
  %85 = and i32 %84, 458759
  %86 = add i32 %85, 2097184
  store i32 %86, ptr %6, align 4, !tbaa !12
  %87 = load i8, ptr %5, align 1, !tbaa !32
  %88 = icmp ne i8 %87, 0
  br i1 %88, label %89, label %92

89:                                               ; preds = %83
  %90 = load i32, ptr %6, align 4, !tbaa !12
  %91 = or i32 %90, 524296
  store i32 %91, ptr %6, align 4, !tbaa !12
  br label %92

92:                                               ; preds = %89, %83
  br label %94

93:                                               ; preds = %79
  store i32 0, ptr %6, align 4, !tbaa !12
  br label %94

94:                                               ; preds = %93, %92
  br label %95

95:                                               ; preds = %94, %76
  call void @llvm.lifetime.end.p0(i64 4, ptr %8) #6
  br label %96

96:                                               ; preds = %95, %61
  %97 = load i32, ptr %6, align 4, !tbaa !12
  ret i32 %97
}