; Function Attrs: mustprogress nofree norecurse nosync nounwind willreturn memory(none) uwtable
define noundef range(i32 0, 4128832) i32 @_ZN6icu_7718CollationFastLatin13getTertiariesEjaj(i32 noundef %0, i8 noundef signext %1, i32 noundef %2) local_unnamed_addr #6 align 2 {
  %4 = icmp ult i32 %2, 65536
  br i1 %4, label %5, label %20

5:                                                ; preds = %3
  %6 = icmp samesign ugt i32 %2, 4095
  br i1 %6, label %7, label %14

7:                                                ; preds = %5
  %.not32 = icmp eq i8 %1, 0
  %8 = and i32 %2, 896
  %9 = icmp samesign ugt i32 %8, 383
  br i1 %.not32, label %12, label %10

10:                                               ; preds = %7
  %11 = and i32 %2, 31
  %spec.select.v = select i1 %9, i32 2621472, i32 32
  %spec.select = or disjoint i32 %spec.select.v, %11
  br label %29

12:                                               ; preds = %7
  %13 = and i32 %2, 7
  %spec.select33.v = select i1 %9, i32 2097184, i32 32
  %spec.select33 = or disjoint i32 %spec.select33.v, %13
  br label %29

14:                                               ; preds = %5
  %15 = icmp ugt i32 %2, %0
  br i1 %15, label %16, label %18

16:                                               ; preds = %14
  %17 = and i32 %2, 7
  %.not31 = icmp eq i8 %1, 0
  %spec.select34.v = select i1 %.not31, i32 32, i32 40
  %spec.select34 = or disjoint i32 %17, %spec.select34.v
  br label %29

18:                                               ; preds = %14
  %19 = icmp samesign ugt i32 %2, 3071
  %spec.store.select = select i1 %19, i32 0, i32 %2
  br label %29

20:                                               ; preds = %3
  %21 = and i32 %2, 65535
  %22 = icmp samesign ugt i32 %21, 4095
  br i1 %22, label %23, label %25

23:                                               ; preds = %20
  %.not30 = icmp eq i8 %1, 0
  %.2.v = select i1 %.not30, i32 458759, i32 2031647
  %.2 = and i32 %.2.v, %2
  %24 = or disjoint i32 %.2, 2097184
  br label %29

25:                                               ; preds = %20
  %26 = icmp ugt i32 %21, %0
  br i1 %26, label %27, label %29

27:                                               ; preds = %25
  %28 = and i32 %2, 458759
  %.not = icmp eq i8 %1, 0
  %spec.select35.v = select i1 %.not, i32 2097184, i32 2621480
  %spec.select35 = or disjoint i32 %28, %spec.select35.v
  br label %29

29:                                               ; preds = %27, %16, %12, %10, %23, %25, %18
  %.1 = phi i32 [ %spec.store.select, %18 ], [ %spec.select, %10 ], [ %spec.select33, %12 ], [ %spec.select34, %16 ], [ %24, %23 ], [ %spec.select35, %27 ], [ 0, %25 ]
  ret i32 %.1
}